; Function Attrs: mustprogress nofree norecurse nosync nounwind willreturn memory(read, argmem: readwrite, inaccessiblemem: none) uwtable
define void @stbtt_GetFontBoundingBox(ptr noundef readonly captures(none) %0, ptr noundef writeonly captures(none) initializes((0, 4)) %1, ptr noundef writeonly captures(none) initializes((0, 4)) %2, ptr noundef writeonly captures(none) initializes((0, 4)) %3, ptr noundef writeonly captures(none) initializes((0, 4)) %4) local_unnamed_addr #0 {
  %6 = getelementptr inbounds nuw i8, ptr %0, i64 8
  %7 = load ptr, ptr %6, align 8, !tbaa !23
  %8 = getelementptr inbounds nuw i8, ptr %0, i64 28
  %9 = load i32, ptr %8, align 4, !tbaa !26
  %10 = sext i32 %9 to i64
  %11 = getelementptr inbounds i8, ptr %7, i64 %10
  %12 = getelementptr inbounds nuw i8, ptr %11, i64 36
  %13 = load i8, ptr %12, align 1, !tbaa !12
  %14 = zext i8 %13 to i16
  %15 = shl nuw i16 %14, 8
  %16 = getelementptr inbounds nuw i8, ptr %11, i64 37
  %17 = load i8, ptr %16, align 1, !tbaa !12
  %18 = zext i8 %17 to i16
  %19 = or disjoint i16 %15, %18
  %20 = sext i16 %19 to i32
  store i32 %20, ptr %1, align 4, !tbaa !17
  %21 = load i32, ptr %8, align 4, !tbaa !26
  %22 = sext i32 %21 to i64
  %23 = getelementptr inbounds i8, ptr %7, i64 %22
  %24 = getelementptr inbounds nuw i8, ptr %23, i64 38
  %25 = load i8, ptr %24, align 1, !tbaa !12
  %26 = zext i8 %25 to i16
  %27 = shl nuw i16 %26, 8
  %28 = getelementptr inbounds nuw i8, ptr %23, i64 39
  %29 = load i8, ptr %28, align 1, !tbaa !12
  %30 = zext i8 %29 to i16
  %31 = or disjoint i16 %27, %30
  %32 = sext i16 %31 to i32
  store i32 %32, ptr %2, align 4, !tbaa !17
  %33 = load i32, ptr %8, align 4, !tbaa !26
  %34 = sext i32 %33 to i64
  %35 = getelementptr inbounds i8, ptr %7, i64 %34
  %36 = getelementptr inbounds nuw i8, ptr %35, i64 40
  %37 = load i8, ptr %36, align 1, !tbaa !12
  %38 = zext i8 %37 to i16
  %39 = shl nuw i16 %38, 8
  %40 = getelementptr inbounds nuw i8, ptr %35, i64 41
  %41 = load i8, ptr %40, align 1, !tbaa !12
  %42 = zext i8 %41 to i16
  %43 = or disjoint i16 %39, %42
  %44 = sext i16 %43 to i32
  store i32 %44, ptr %3, align 4, !tbaa !17
  %45 = load i32, ptr %8, align 4, !tbaa !26
  %46 = sext i32 %45 to i64
  %47 = getelementptr inbounds i8, ptr %7, i64 %46
  %48 = getelementptr inbounds nuw i8, ptr %47, i64 42
  %49 = load i8, ptr %48, align 1, !tbaa !12
  %50 = zext i8 %49 to i16
  %51 = shl nuw i16 %50, 8
  %52 = getelementptr inbounds nuw i8, ptr %47, i64 43
  %53 = load i8, ptr %52, align 1, !tbaa !12
  %54 = zext i8 %53 to i16
  %55 = or disjoint i16 %51, %54
  %56 = sext i16 %55 to i32
  store i32 %56, ptr %4, align 4, !tbaa !17
  ret void
}